ARM GAS  C:\Users\lauri\AppData\Local\Temp\ccCYpoT2.s 			page 1


   1              		.syntax unified
   2              		.cpu cortex-m3
   3              		.fpu softvfp
   4              		.eabi_attribute 20, 1
   5              		.eabi_attribute 21, 1
   6              		.eabi_attribute 23, 3
   7              		.eabi_attribute 24, 1
   8              		.eabi_attribute 25, 1
   9              		.eabi_attribute 26, 1
  10              		.eabi_attribute 30, 1
  11              		.eabi_attribute 34, 1
  12              		.eabi_attribute 18, 4
  13              		.thumb
  14              		.file	"main.c"
  15              		.text
  16              	.Ltext0:
  17              		.cfi_sections	.debug_frame
  18              		.section	.text.isr_Slave,"ax",%progbits
  19              		.align	2
  20              		.global	isr_Slave
  21              		.thumb
  22              		.thumb_func
  23              		.type	isr_Slave, %function
  24              	isr_Slave:
  25              	.LFB63:
  26              		.file 1 "main.c"
   1:main.c        **** /* ========================================
   2:main.c        ****  *
   3:main.c        ****  * Copyright YOUR COMPANY, THE YEAR
   4:main.c        ****  * All Rights Reserved
   5:main.c        ****  * UNPUBLISHED, LICENSED SOFTWARE.
   6:main.c        ****  *
   7:main.c        ****  * CONFIDENTIAL AND PROPRIETARY INFORMATION
   8:main.c        ****  * WHICH IS THE PROPERTY OF your company.
   9:main.c        ****  *
  10:main.c        ****  * ========================================
  11:main.c        **** */
  12:main.c        **** #include "project.h"
  13:main.c        **** 
  14:main.c        **** CY_ISR(isr_Slave) 
  15:main.c        **** {     
  27              		.loc 1 15 0
  28              		.cfi_startproc
  29              		@ args = 0, pretend = 0, frame = 0
  30              		@ frame_needed = 0, uses_anonymous_args = 0
  31 0000 10B5     		push	{r4, lr}
  32              		.cfi_def_cfa_offset 8
  33              		.cfi_offset 4, -8
  34              		.cfi_offset 14, -4
  35              	.LVL0:
  16:main.c        ****     uint8 i, j, buf[8];     
  17:main.c        ****     float modtaget = 0;
  18:main.c        ****     
  19:main.c        **** //    j = SPIS_1_GetRxBufferSize();          // SPI Read data from SPIS RX software buffer to buf  
  20:main.c        **** //    
  21:main.c        **** //    for(i=0u; i<j; i++)     
  22:main.c        **** //    {         
ARM GAS  C:\Users\lauri\AppData\Local\Temp\ccCYpoT2.s 			page 2


  23:main.c        **** //        buf[i] = SPIS_1_ReadRxData();     
  24:main.c        **** //    }        
  25:main.c        ****     
  26:main.c        ****     modtaget = SPIS_1_ReadRxData();
  36              		.loc 1 26 0
  37 0002 FFF7FEFF 		bl	SPIS_1_ReadRxData
  38              	.LVL1:
  39 0006 0446     		mov	r4, r0
  40              	.LVL2:
  27:main.c        ****     
  28:main.c        **** //    if (j>0)  // Process data received....     
  29:main.c        **** //    {         
  30:main.c        **** //        // Send last command back to master at next transaction!         
  31:main.c        ****         SPIS_1_WriteTxData(modtaget);         
  41              		.loc 1 31 0
  42 0008 FFF7FEFF 		bl	SPIS_1_WriteTxData
  43              	.LVL3:
  32:main.c        **** //    }          
  33:main.c        ****     
  34:main.c        ****     LED_Write(modtaget);  // Debug -> Toggle LED!  
  44              		.loc 1 34 0
  45 000c E0B2     		uxtb	r0, r4
  46 000e FFF7FEFF 		bl	LED_Write
  47              	.LVL4:
  35:main.c        ****     
  36:main.c        ****     // Clear Rx Interrupt Source     
  37:main.c        ****     SPIS_1_ClearFIFO();
  48              		.loc 1 37 0
  49 0012 FFF7FEFF 		bl	SPIS_1_ClearFIFO
  50              	.LVL5:
  38:main.c        ****     SPIS_1_ClearRxBuffer();
  51              		.loc 1 38 0
  52 0016 FFF7FEFF 		bl	SPIS_1_ClearRxBuffer
  53              	.LVL6:
  39:main.c        ****     SPIS_1_ClearTxBuffer();    
  54              		.loc 1 39 0
  55 001a FFF7FEFF 		bl	SPIS_1_ClearTxBuffer
  56              	.LVL7:
  57 001e 10BD     		pop	{r4, pc}
  58              		.cfi_endproc
  59              	.LFE63:
  60              		.size	isr_Slave, .-isr_Slave
  61              		.section	.text.main,"ax",%progbits
  62              		.align	2
  63              		.global	main
  64              		.thumb
  65              		.thumb_func
  66              		.type	main, %function
  67              	main:
  68              	.LFB64:
  40:main.c        ****     
  41:main.c        ****     // SPIS_ClearRxInterruptSource(source); 
  42:main.c        **** } 
  43:main.c        ****  
  44:main.c        **** int main() 
  45:main.c        **** {     
  69              		.loc 1 45 0
ARM GAS  C:\Users\lauri\AppData\Local\Temp\ccCYpoT2.s 			page 3


  70              		.cfi_startproc
  71              		@ Volatile: function does not return.
  72              		@ args = 0, pretend = 0, frame = 0
  73              		@ frame_needed = 0, uses_anonymous_args = 0
  74 0000 08B5     		push	{r3, lr}
  75              		.cfi_def_cfa_offset 8
  76              		.cfi_offset 3, -8
  77              		.cfi_offset 14, -4
  46:main.c        ****     CyGlobalIntEnable;             
  78              		.loc 1 46 0
  79              	@ 46 "main.c" 1
  80 0002 62B6     		CPSIE   i
  81              	@ 0 "" 2
  47:main.c        ****     isr_SPI_StartEx(isr_Slave);   
  82              		.loc 1 47 0
  83              		.thumb
  84 0004 0248     		ldr	r0, .L6
  85 0006 FFF7FEFF 		bl	isr_SPI_StartEx
  86              	.LVL8:
  48:main.c        ****     SPIS_1_Start();
  87              		.loc 1 48 0
  88 000a FFF7FEFF 		bl	SPIS_1_Start
  89              	.LVL9:
  90              	.L4:
  49:main.c        ****     
  50:main.c        ****     for(;;)     
  51:main.c        ****     {         
  52:main.c        ****         // Do nothing!!!     
  53:main.c        ****     } 
  91              		.loc 1 53 0 discriminator 1
  92 000e FEE7     		b	.L4
  93              	.L7:
  94              		.align	2
  95              	.L6:
  96 0010 00000000 		.word	isr_Slave
  97              		.cfi_endproc
  98              	.LFE64:
  99              		.size	main, .-main
 100              		.text
 101              	.Letext0:
 102              		.file 2 "c:\\program files (x86)\\cypress\\psoc creator\\4.0\\psoc creator\\import\\gnu\\arm\\4.9.
 103              		.file 3 "c:\\program files (x86)\\cypress\\psoc creator\\4.0\\psoc creator\\import\\gnu\\arm\\4.9.
 104              		.file 4 "Generated_Source\\PSoC5/cytypes.h"
 105              		.file 5 "Generated_Source\\PSoC5/SPIS_1.h"
 106              		.file 6 "Generated_Source\\PSoC5/LED.h"
 107              		.file 7 "Generated_Source\\PSoC5/isr_SPI.h"
 108              		.file 8 "Generated_Source\\PSoC5/core_cm3.h"